; Function Attrs: nounwind uwtable
define internal void @fn_command_ancestry_fl(ptr noundef %0, i32 noundef %1, ptr noundef %2) #0 {
  %4 = alloca %struct.strbuf, align 8
  call void @llvm.lifetime.start.p0(i64 24, ptr nonnull %4) #7
  call void @llvm.memcpy.p0.p0.i64(ptr noundef nonnull align 8 dereferenceable(24) %4, ptr noundef nonnull align 8 dereferenceable(24) @__const.fn_counter.buf_payload, i64 24, i1 false)
  call void @strbuf_add(ptr noundef nonnull %4, ptr noundef nonnull @.str.25, i64 noundef 10) #7
  call void @sq_append_quote_argv_pretty(ptr noundef nonnull %4, ptr noundef %2) #7
  %5 = load i64, ptr %4, align 8, !tbaa !11
  %.not.i.i = icmp eq i64 %5, 0
  br i1 %.not.i.i, label %strbuf_avail.exit.thread.i, label %strbuf_avail.exit.i

strbuf_avail.exit.i:                              ; preds = %3
  %6 = getelementptr inbounds nuw i8, ptr %4, i64 8
  %7 = load i64, ptr %6, align 8, !tbaa !15
  %.neg.i = add i64 %7, 1
  %.not.i = icmp eq i64 %5, %.neg.i
  br i1 %.not.i, label %strbuf_avail.exit.thread.i, label %strbuf_addch.exit

strbuf_avail.exit.thread.i:                       ; preds = %strbuf_avail.exit.i, %3
  call void @strbuf_grow(ptr noundef nonnull %4, i64 noundef 1) #7
  %.phi.trans.insert.i = getelementptr inbounds nuw i8, ptr %4, i64 8
  %.pre.i = load i64, ptr %.phi.trans.insert.i, align 8, !tbaa !15
  %.pre7.i = add i64 %.pre.i, 1
  br label %strbuf_addch.exit

strbuf_addch.exit:                                ; preds = %strbuf_avail.exit.i, %strbuf_avail.exit.thread.i
  %.pre-phi.i = phi i64 [ %.pre7.i, %strbuf_avail.exit.thread.i ], [ %.neg.i, %strbuf_avail.exit.i ]
  %8 = phi i64 [ %.pre.i, %strbuf_avail.exit.thread.i ], [ %7, %strbuf_avail.exit.i ]
  %9 = getelementptr inbounds nuw i8, ptr %4, i64 16
  %10 = load ptr, ptr %9, align 8, !tbaa !16
  %11 = getelementptr inbounds nuw i8, ptr %4, i64 8
  store i64 %.pre-phi.i, ptr %11, align 8, !tbaa !15
  %12 = getelementptr inbounds nuw i8, ptr %10, i64 %8
  store i8 93, ptr %12, align 1, !tbaa !4
  %13 = load ptr, ptr %9, align 8, !tbaa !16
  %14 = load i64, ptr %11, align 8, !tbaa !15
  %15 = getelementptr inbounds nuw i8, ptr %13, i64 %14
  store i8 0, ptr %15, align 1, !tbaa !4
  call fastcc void @perf_io_write_fl(ptr noundef %0, i32 noundef %1, ptr noundef nonnull @.str.24, ptr noundef null, ptr noundef null, ptr noundef null, ptr noundef null, ptr noundef %4)
  call void @strbuf_release(ptr noundef nonnull %4) #7
  call void @llvm.lifetime.end.p0(i64 24, ptr nonnull %4) #7
  ret void
}